target datalayout = "e-m:e-p270:32:32-p271:32:32-p272:64:64-i64:64-i128:128-f80:128-n8:16:32:64-S128"
target triple = "x86_64-pc-linux-gnu"

%struct.MatroskaMuxContext = type { ptr, ptr, i32, %struct.ebml_stored_master, %struct.ebml_stored_master, %struct.ebml_stored_master, i64, ptr, i64, i64, i64, i64, ptr, %struct.mkv_seekhead, %struct.mkv_cues, i64, %struct.BlockContext, ptr, ptr, i32, i32, i32, i32, i32, i32, i64, i32, i32, i32, i32, i32, i32, i32, i32, [4 x i32] }
%struct.ebml_stored_master = type { ptr, i64 }
%struct.mkv_seekhead = type { i64, [7 x %struct.mkv_seekhead_entry], i32, i32 }
%struct.mkv_seekhead_entry = type { i32, i64 }
%struct.mkv_cues = type { ptr, i32 }
%struct.BlockContext = type { ptr, ptr, i16, i8, %struct.NALUList }
%struct.NALUList = type { ptr, i32, i32 }
%struct.AVIOContext = type { ptr, ptr, i32, ptr, ptr, ptr, ptr, ptr, ptr, i64, i32, i32, i32, i32, i32, i64, ptr, ptr, ptr, ptr, i32, i32, ptr, ptr, ptr, i32, ptr, i64, i64 }

@ff_log2_tab = external constant [256 x i8], align 16

; Function Attrs: alwaysinline nounwind willreturn memory(none) uwtable
define internal i32 @ff_log2_c(i32 noundef %0) #6 {
  %2 = alloca i32, align 4
  %3 = alloca i32, align 4
  store i32 %0, ptr %2, align 4, !tbaa !30
  call void @llvm.lifetime.start.p0(i64 4, ptr %3) #16
  store i32 0, ptr %3, align 4, !tbaa !30
  %4 = load i32, ptr %2, align 4, !tbaa !30
  %5 = and i32 %4, -65536
  %6 = icmp ne i32 %5, 0
  br i1 %6, label %7, label %12

7:                                                ; preds = %1
  %8 = load i32, ptr %2, align 4, !tbaa !30
  %9 = lshr i32 %8, 16
  store i32 %9, ptr %2, align 4, !tbaa !30
  %10 = load i32, ptr %3, align 4, !tbaa !30
  %11 = add nsw i32 %10, 16
  store i32 %11, ptr %3, align 4, !tbaa !30
  br label %12

12:                                               ; preds = %7, %1
  %13 = load i32, ptr %2, align 4, !tbaa !30
  %14 = and i32 %13, 65280
  %15 = icmp ne i32 %14, 0
  br i1 %15, label %16, label %21

16:                                               ; preds = %12
  %17 = load i32, ptr %2, align 4, !tbaa !30
  %18 = lshr i32 %17, 8
  store i32 %18, ptr %2, align 4, !tbaa !30
  %19 = load i32, ptr %3, align 4, !tbaa !30
  %20 = add nsw i32 %19, 8
  store i32 %20, ptr %3, align 4, !tbaa !30
  br label %21

21:                                               ; preds = %16, %12
  %22 = load i32, ptr %2, align 4, !tbaa !30
  %23 = zext i32 %22 to i64
  %24 = getelementptr inbounds nuw [256 x i8], ptr @ff_log2_tab, i64 0, i64 %23
  %25 = load i8, ptr %24, align 1, !tbaa !122
  %26 = zext i8 %25 to i32
  %27 = load i32, ptr %3, align 4, !tbaa !30
  %28 = add nsw i32 %27, %26
  store i32 %28, ptr %3, align 4, !tbaa !30
  %29 = load i32, ptr %3, align 4, !tbaa !30
  call void @llvm.lifetime.end.p0(i64 4, ptr %3) #16
  ret i32 %29
}

; Function Attrs: nounwind uwtable
define internal i32 @ebml_id_size(i32 noundef %0) #0 {
  %2 = alloca i32, align 4
  store i32 %0, ptr %2, align 4, !tbaa !30
  %3 = load i32, ptr %2, align 4, !tbaa !30
  %4 = call i32 @ff_log2_c(i32 noundef %3) #19
  %5 = add i32 %4, 7
  %6 = udiv i32 %5, 8
  ret i32 %6
}

; Function Attrs: nounwind uwtable
define internal void @put_ebml_id(ptr noundef %0, i32 noundef %1) #0 {
  %3 = alloca ptr, align 8
  %4 = alloca i32, align 4
  %5 = alloca i32, align 4
  store ptr %0, ptr %3, align 8, !tbaa !29
  store i32 %1, ptr %4, align 4, !tbaa !30
  call void @llvm.lifetime.start.p0(i64 4, ptr %5) #16
  %6 = load i32, ptr %4, align 4, !tbaa !30
  %7 = call i32 @ebml_id_size(i32 noundef %6)
  store i32 %7, ptr %5, align 4, !tbaa !30
  br label %8

8:                                                ; preds = %12, %2
  %9 = load i32, ptr %5, align 4, !tbaa !30
  %10 = add nsw i32 %9, -1
  store i32 %10, ptr %5, align 4, !tbaa !30
  %11 = icmp ne i32 %9, 0
  br i1 %11, label %12, label %20

12:                                               ; preds = %8
  %13 = load ptr, ptr %3, align 8, !tbaa !29
  %14 = load i32, ptr %4, align 4, !tbaa !30
  %15 = load i32, ptr %5, align 4, !tbaa !30
  %16 = mul nsw i32 %15, 8
  %17 = lshr i32 %14, %16
  %18 = trunc i32 %17 to i8
  %19 = zext i8 %18 to i32
  call void @avio_w8(ptr noundef %13, i32 noundef %19)
  br label %8, !llvm.loop !140

20:                                               ; preds = %8
  call void @llvm.lifetime.end.p0(i64 4, ptr %5) #16
  ret void
}

; Function Attrs: nounwind uwtable
define internal void @mkv_add_seekhead_entry(ptr noundef %0, i32 noundef %1, i64 noundef %2) #0 {
  %4 = alloca ptr, align 8
  %5 = alloca i32, align 4
  %6 = alloca i64, align 8
  %7 = alloca ptr, align 8
  store ptr %0, ptr %4, align 8, !tbaa !26
  store i32 %1, ptr %5, align 4, !tbaa !30
  store i64 %2, ptr %6, align 8, !tbaa !79
  call void @llvm.lifetime.start.p0(i64 8, ptr %7) #16
  %8 = load ptr, ptr %4, align 8, !tbaa !26
  %9 = getelementptr inbounds nuw %struct.MatroskaMuxContext, ptr %8, i32 0, i32 13
  store ptr %9, ptr %7, align 8, !tbaa !169
  %10 = load i32, ptr %5, align 4, !tbaa !30
  %11 = load ptr, ptr %7, align 8, !tbaa !169
  %12 = getelementptr inbounds nuw %struct.mkv_seekhead, ptr %11, i32 0, i32 1
  %13 = load ptr, ptr %7, align 8, !tbaa !169
  %14 = getelementptr inbounds nuw %struct.mkv_seekhead, ptr %13, i32 0, i32 2
  %15 = load i32, ptr %14, align 8, !tbaa !172
  %16 = sext i32 %15 to i64
  %17 = getelementptr inbounds [7 x %struct.mkv_seekhead_entry], ptr %12, i64 0, i64 %16
  %18 = getelementptr inbounds nuw %struct.mkv_seekhead_entry, ptr %17, i32 0, i32 0
  store i32 %10, ptr %18, align 8, !tbaa !175
  %19 = load i64, ptr %6, align 8, !tbaa !79
  %20 = load ptr, ptr %4, align 8, !tbaa !26
  %21 = getelementptr inbounds nuw %struct.MatroskaMuxContext, ptr %20, i32 0, i32 6
  %22 = load i64, ptr %21, align 8, !tbaa !65
  %23 = sub i64 %19, %22
  %24 = load ptr, ptr %7, align 8, !tbaa !169
  %25 = getelementptr inbounds nuw %struct.mkv_seekhead, ptr %24, i32 0, i32 1
  %26 = load ptr, ptr %7, align 8, !tbaa !169
  %27 = getelementptr inbounds nuw %struct.mkv_seekhead, ptr %26, i32 0, i32 2
  %28 = load i32, ptr %27, align 8, !tbaa !172
  %29 = add nsw i32 %28, 1
  store i32 %29, ptr %27, align 8, !tbaa !172
  %30 = sext i32 %28 to i64
  %31 = getelementptr inbounds [7 x %struct.mkv_seekhead_entry], ptr %25, i64 0, i64 %30
  %32 = getelementptr inbounds nuw %struct.mkv_seekhead_entry, ptr %31, i32 0, i32 1
  store i64 %23, ptr %32, align 8, !tbaa !177
  call void @llvm.lifetime.end.p0(i64 8, ptr %7) #16
  ret void
}

; Function Attrs: alwaysinline nounwind uwtable
define internal i64 @avio_tell(ptr noundef %0) #3 {
  %2 = alloca ptr, align 8
  store ptr %0, ptr %2, align 8, !tbaa !29
  %3 = load ptr, ptr %2, align 8, !tbaa !29
  %4 = call i64 @avio_seek(ptr noundef %3, i64 noundef 0, i32 noundef 1)
  ret i64 %4
}

; Function Attrs: nounwind uwtable
define internal i32 @end_ebml_master_crc32_tentatively(ptr noundef %0, ptr noundef %1, ptr noundef %2, i32 noundef %3) #0 {
  %5 = alloca i32, align 4
  %6 = alloca ptr, align 8
  %7 = alloca ptr, align 8
  %8 = alloca ptr, align 8
  %9 = alloca i32, align 4
  %10 = alloca ptr, align 8
  %11 = alloca i32, align 4
  %12 = alloca i32, align 4
  store ptr %0, ptr %6, align 8, !tbaa !29
  store ptr %1, ptr %7, align 8, !tbaa !210
  store ptr %2, ptr %8, align 8, !tbaa !26
  store i32 %3, ptr %9, align 4, !tbaa !30
  %13 = load ptr, ptr %6, align 8, !tbaa !29
  %14 = getelementptr inbounds nuw %struct.AVIOContext, ptr %13, i32 0, i32 20
  %15 = load i32, ptr %14, align 8, !tbaa !66
  %16 = and i32 %15, 1
  %17 = icmp ne i32 %16, 0
  br i1 %17, label %18, label %59

18:                                               ; preds = %4
  %19 = load ptr, ptr %8, align 8, !tbaa !26
  %20 = getelementptr inbounds nuw %struct.MatroskaMuxContext, ptr %19, i32 0, i32 27
  %21 = load i32, ptr %20, align 4, !tbaa !68
  %22 = icmp ne i32 %21, 0
  br i1 %22, label %59, label %23

23:                                               ; preds = %18
  call void @llvm.lifetime.start.p0(i64 8, ptr %10) #16
  call void @llvm.lifetime.start.p0(i64 4, ptr %11) #16
  %24 = load ptr, ptr %7, align 8, !tbaa !210
  %25 = getelementptr inbounds nuw %struct.ebml_stored_master, ptr %24, i32 0, i32 0
  %26 = load ptr, ptr %25, align 8, !tbaa !212
  %27 = call i32 @avio_get_dyn_buf(ptr noundef %26, ptr noundef %10)
  store i32 %27, ptr %11, align 4, !tbaa !30
  %28 = load ptr, ptr %7, align 8, !tbaa !210
  %29 = getelementptr inbounds nuw %struct.ebml_stored_master, ptr %28, i32 0, i32 0
  %30 = load ptr, ptr %29, align 8, !tbaa !212
  %31 = getelementptr inbounds nuw %struct.AVIOContext, ptr %30, i32 0, i32 11
  %32 = load i32, ptr %31, align 4, !tbaa !213
  %33 = icmp slt i32 %32, 0
  br i1 %33, label %34, label %40

34:                                               ; preds = %23
  %35 = load ptr, ptr %7, align 8, !tbaa !210
  %36 = getelementptr inbounds nuw %struct.ebml_stored_master, ptr %35, i32 0, i32 0
  %37 = load ptr, ptr %36, align 8, !tbaa !212
  %38 = getelementptr inbounds nuw %struct.AVIOContext, ptr %37, i32 0, i32 11
  %39 = load i32, ptr %38, align 4, !tbaa !213
  store i32 %39, ptr %5, align 4
  store i32 1, ptr %12, align 4
  br label %58

40:                                               ; preds = %23
  %41 = load ptr, ptr %6, align 8, !tbaa !29
  %42 = call i64 @avio_tell(ptr noundef %41)
  %43 = load ptr, ptr %7, align 8, !tbaa !210
  %44 = getelementptr inbounds nuw %struct.ebml_stored_master, ptr %43, i32 0, i32 1
  store i64 %42, ptr %44, align 8, !tbaa !214
  %45 = load ptr, ptr %8, align 8, !tbaa !26
  %46 = load i32, ptr %9, align 4, !tbaa !30
  %47 = load ptr, ptr %7, align 8, !tbaa !210
  %48 = getelementptr inbounds nuw %struct.ebml_stored_master, ptr %47, i32 0, i32 1
  %49 = load i64, ptr %48, align 8, !tbaa !214
  call void @mkv_add_seekhead_entry(ptr noundef %45, i32 noundef %46, i64 noundef %49)
  %50 = load ptr, ptr %6, align 8, !tbaa !29
  %51 = load i32, ptr %9, align 4, !tbaa !30
  call void @put_ebml_id(ptr noundef %50, i32 noundef %51)
  %52 = load ptr, ptr %6, align 8, !tbaa !29
  %53 = load i32, ptr %11, align 4, !tbaa !30
  %54 = sext i32 %53 to i64
  call void @put_ebml_length(ptr noundef %52, i64 noundef %54, i32 noundef 0)
  %55 = load ptr, ptr %6, align 8, !tbaa !29
  %56 = load ptr, ptr %10, align 8, !tbaa !134
  %57 = load i32, ptr %11, align 4, !tbaa !30
  call void @avio_write(ptr noundef %55, ptr noundef %56, i32 noundef %57)
  store i32 0, ptr %5, align 4
  store i32 1, ptr %12, align 4
  br label %58

58:                                               ; preds = %40, %34
  call void @llvm.lifetime.end.p0(i64 4, ptr %11) #16
  call void @llvm.lifetime.end.p0(i64 8, ptr %10) #16
  br label %66

59:                                               ; preds = %18, %4
  %60 = load ptr, ptr %6, align 8, !tbaa !29
  %61 = load ptr, ptr %7, align 8, !tbaa !210
  %62 = getelementptr inbounds nuw %struct.ebml_stored_master, ptr %61, i32 0, i32 0
  %63 = load ptr, ptr %8, align 8, !tbaa !26
  %64 = load i32, ptr %9, align 4, !tbaa !30
  %65 = call i32 @end_ebml_master_crc32(ptr noundef %60, ptr noundef %62, ptr noundef %63, i32 noundef %64, i32 noundef 0, i32 noundef 0, i32 noundef 1)
  store i32 %65, ptr %5, align 4
  br label %66

66:                                               ; preds = %59, %58
  %67 = load i32, ptr %5, align 4
  ret i32 %67
}