; Function Attrs: nounwind uwtable
define internal fastcc i32 @end_ebml_master_crc32_tentatively(ptr noundef %0, ptr noundef %1, ptr noundef captures(none) %2, i32 noundef range(i32 307544935, 374648428) %3) unnamed_addr #0 {
  %5 = alloca ptr, align 8
  %6 = getelementptr inbounds nuw i8, ptr %0, i64 144
  %7 = load i32, ptr %6, align 8, !tbaa !80
  %8 = and i32 %7, 1
  %.not = icmp eq i32 %8, 0
  br i1 %.not, label %46, label %9

9:                                                ; preds = %4
  %10 = getelementptr inbounds nuw i8, ptr %2, i64 372
  %11 = load i32, ptr %10, align 4, !tbaa !67
  %.not21 = icmp eq i32 %11, 0
  br i1 %.not21, label %12, label %46

12:                                               ; preds = %9
  call void @llvm.lifetime.start.p0(i64 8, ptr nonnull %5) #14
  %13 = load ptr, ptr %1, align 8, !tbaa !279
  %14 = call i32 @avio_get_dyn_buf(ptr noundef %13, ptr noundef nonnull %5) #14
  %15 = load ptr, ptr %1, align 8, !tbaa !279
  %16 = getelementptr inbounds nuw i8, ptr %15, i64 84
  %17 = load i32, ptr %16, align 4, !tbaa !225
  %18 = icmp slt i32 %17, 0
  br i1 %18, label %45, label %.lr.ph.preheader.i

.lr.ph.preheader.i:                               ; preds = %12
  %19 = call i64 @avio_seek(ptr noundef nonnull %0, i64 noundef 0, i32 noundef 1) #14
  %20 = getelementptr inbounds nuw i8, ptr %1, i64 8
  store i64 %19, ptr %20, align 8, !tbaa !280
  %21 = getelementptr inbounds nuw i8, ptr %2, i64 136
  %22 = getelementptr inbounds nuw i8, ptr %2, i64 248
  %23 = load i32, ptr %22, align 8, !tbaa !264
  %24 = sext i32 %23 to i64
  %25 = getelementptr inbounds [7 x %struct.mkv_seekhead_entry], ptr %21, i64 0, i64 %24
  store i32 %3, ptr %25, align 8, !tbaa !265
  %26 = getelementptr inbounds nuw i8, ptr %2, i64 72
  %27 = load i64, ptr %26, align 8, !tbaa !53
  %28 = sub i64 %19, %27
  %29 = add nsw i32 %23, 1
  store i32 %29, ptr %22, align 8, !tbaa !264
  %.idx.i = shl nsw i64 %24, 4
  %30 = getelementptr i8, ptr %21, i64 %.idx.i
  %31 = getelementptr i8, ptr %30, i64 8
  store i64 %28, ptr %31, align 8, !tbaa !267
  %32 = lshr i32 %3, 24
  %33 = zext nneg i32 %32 to i64
  %34 = getelementptr inbounds nuw [256 x i8], ptr @ff_log2_tab, i64 0, i64 %33
  %35 = load i8, ptr %34, align 1, !tbaa !50
  %36 = zext i8 %35 to i32
  %37 = add nuw nsw i32 %36, 31
  %38 = lshr i32 %37, 3
  br label %.lr.ph.i

.lr.ph.i:                                         ; preds = %.lr.ph.i, %.lr.ph.preheader.i
  %.05.i = phi i32 [ %39, %.lr.ph.i ], [ %38, %.lr.ph.preheader.i ]
  %39 = add nsw i32 %.05.i, -1
  %40 = shl nsw i32 %39, 3
  %41 = lshr i32 %3, %40
  %42 = and i32 %41, 255
  call void @avio_w8(ptr noundef nonnull %0, i32 noundef %42) #14
  %.not.i = icmp eq i32 %39, 0
  br i1 %.not.i, label %put_ebml_id.exit, label %.lr.ph.i, !llvm.loop !51

put_ebml_id.exit:                                 ; preds = %.lr.ph.i
  %43 = sext i32 %14 to i64
  call fastcc void @put_ebml_length(ptr noundef nonnull %0, i64 noundef %43, i32 noundef 0)
  %44 = load ptr, ptr %5, align 8, !tbaa !118
  call void @avio_write(ptr noundef nonnull %0, ptr noundef %44, i32 noundef %14) #14
  br label %45

45:                                               ; preds = %12, %put_ebml_id.exit
  %.0 = phi i32 [ 0, %put_ebml_id.exit ], [ %17, %12 ]
  call void @llvm.lifetime.end.p0(i64 8, ptr nonnull %5) #14
  br label %48

46:                                               ; preds = %9, %4
  %47 = tail call fastcc i32 @end_ebml_master_crc32(ptr noundef nonnull %0, ptr noundef %1, ptr noundef %2, i32 noundef %3, i32 noundef 0, i32 noundef 0, i32 noundef 1)
  br label %48

48:                                               ; preds = %46, %45
  %.1 = phi i32 [ %47, %46 ], [ %.0, %45 ]
  ret i32 %.1
}